target datalayout = "e-m:e-p270:32:32-p271:32:32-p272:64:64-i64:64-i128:128-f80:128-n8:16:32:64-S128"
target triple = "x86_64-pc-linux-gnu"

%class.ConnectionGraph = type { %class.GrowableArray, %class.GrowableArray, %class.VectorSet, i32, i8, i8, ptr, ptr, ptr, %class.Unique_Node_List, i32, i32, double, ptr, %class.Node_Array }
%class.GrowableArray = type { %class.GrowableArrayWithAllocator, %class.GrowableArrayMetadata }
%class.GrowableArrayWithAllocator = type { %class.GrowableArrayView }
%class.GrowableArrayView = type { %class.GrowableArrayBase, ptr }
%class.GrowableArrayBase = type { i32, i32 }
%class.GrowableArrayMetadata = type { i64 }
%class.VectorSet = type { i32, ptr, i32, ptr }
%class.Unique_Node_List = type <{ %class.Node_List.base, [4 x i8], %class.VectorSet, i32, [4 x i8] }>
%class.Node_List.base = type <{ %class.Node_Array, i32 }>
%class.Node_Array = type { ptr, i32, ptr }
%class.Node = type <{ ptr, ptr, ptr, i32, i32, i32, i32, i32, i32, i32, [4 x i8] }>
%class.PointsToNode = type { %class.GrowableArray, %class.GrowableArray, i8, i8, i8, i8, ptr, i32, i32 }
%class.PointsToIterator = type { ptr, i32, i32 }
%class.EdgeIterator = type { %class.PointsToIterator }

; Function Attrs: mustprogress nounwind uwtable
define linkonce_odr hidden noundef ptr @_ZNK12PointsToNode4edgeEi(ptr noundef nonnull align 8 dereferenceable(72) %0, i32 noundef %1) #1 comdat align 2 {
  %3 = alloca ptr, align 8
  %4 = alloca i32, align 4
  store ptr %0, ptr %3, align 8
  store i32 %1, ptr %4, align 4
  %5 = load ptr, ptr %3, align 8
  %6 = getelementptr inbounds %class.PointsToNode, ptr %5, i32 0, i32 0
  %7 = load i32, ptr %4, align 4
  %8 = call noundef nonnull align 8 dereferenceable(8) ptr @_ZNK17GrowableArrayViewIP12PointsToNodeE2atEi(ptr noundef nonnull align 8 dereferenceable(16) %6, i32 noundef %7)
  %9 = load ptr, ptr %8, align 8
  ret ptr %9
}

; Function Attrs: mustprogress nounwind uwtable
define linkonce_odr hidden void @_ZN16PointsToIteratorC2EPK12PointsToNodei(ptr noundef nonnull align 8 dereferenceable(16) %0, ptr noundef %1, i32 noundef %2) unnamed_addr #1 comdat align 2 {
  %4 = alloca ptr, align 8
  %5 = alloca ptr, align 8
  %6 = alloca i32, align 4
  store ptr %0, ptr %4, align 8
  store ptr %1, ptr %5, align 8
  store i32 %2, ptr %6, align 4
  %7 = load ptr, ptr %4, align 8
  %8 = getelementptr inbounds %class.PointsToIterator, ptr %7, i32 0, i32 0
  %9 = load ptr, ptr %5, align 8
  store ptr %9, ptr %8, align 8
  %10 = getelementptr inbounds %class.PointsToIterator, ptr %7, i32 0, i32 1
  %11 = load i32, ptr %6, align 4
  store i32 %11, ptr %10, align 8
  %12 = getelementptr inbounds %class.PointsToIterator, ptr %7, i32 0, i32 2
  store i32 0, ptr %12, align 4
  ret void
}

; Function Attrs: mustprogress nounwind uwtable
define linkonce_odr hidden noundef i32 @_ZNK12PointsToNode10edge_countEv(ptr noundef nonnull align 8 dereferenceable(72) %0) #1 comdat align 2 {
  %2 = alloca ptr, align 8
  store ptr %0, ptr %2, align 8
  %3 = load ptr, ptr %2, align 8
  %4 = getelementptr inbounds %class.PointsToNode, ptr %3, i32 0, i32 0
  %5 = call noundef i32 @_ZNK17GrowableArrayBase6lengthEv(ptr noundef nonnull align 4 dereferenceable(8) %4)
  ret i32 %5
}

; Function Attrs: mustprogress nounwind uwtable
define linkonce_odr hidden noundef nonnull align 8 dereferenceable(8) ptr @_ZNK17GrowableArrayViewIP12PointsToNodeE2atEi(ptr noundef nonnull align 8 dereferenceable(16) %0, i32 noundef %1) #1 comdat align 2 {
  %3 = alloca ptr, align 8
  %4 = alloca i32, align 4
  store ptr %0, ptr %3, align 8
  store i32 %1, ptr %4, align 4
  %5 = load ptr, ptr %3, align 8
  %6 = getelementptr inbounds %class.GrowableArrayView, ptr %5, i32 0, i32 1
  %7 = load ptr, ptr %6, align 8
  %8 = load i32, ptr %4, align 4
  %9 = sext i32 %8 to i64
  %10 = getelementptr inbounds ptr, ptr %7, i64 %9
  ret ptr %10
}

; Function Attrs: mustprogress nounwind uwtable
define linkonce_odr hidden noundef i32 @_ZNK17GrowableArrayBase6lengthEv(ptr noundef nonnull align 4 dereferenceable(8) %0) #1 comdat align 2 {
  %2 = alloca ptr, align 8
  store ptr %0, ptr %2, align 8
  %3 = load ptr, ptr %2, align 8
  %4 = getelementptr inbounds %class.GrowableArrayBase, ptr %3, i32 0, i32 0
  %5 = load i32, ptr %4, align 4
  ret i32 %5
}

; Function Attrs: mustprogress nounwind uwtable
define linkonce_odr hidden void @_ZN16PointsToIterator4nextEv(ptr noundef nonnull align 8 dereferenceable(16) %0) #1 comdat align 2 {
  %2 = alloca ptr, align 8
  store ptr %0, ptr %2, align 8
  %3 = load ptr, ptr %2, align 8
  %4 = getelementptr inbounds %class.PointsToIterator, ptr %3, i32 0, i32 2
  %5 = load i32, ptr %4, align 4
  %6 = add nsw i32 %5, 1
  store i32 %6, ptr %4, align 4
  ret void
}

; Function Attrs: mustprogress nounwind uwtable
define linkonce_odr hidden noundef ptr @_ZNK12EdgeIterator3getEv(ptr noundef nonnull align 8 dereferenceable(16) %0) #1 comdat align 2 {
  %2 = alloca ptr, align 8
  store ptr %0, ptr %2, align 8
  %3 = load ptr, ptr %2, align 8
  %4 = getelementptr inbounds %class.PointsToIterator, ptr %3, i32 0, i32 0
  %5 = load ptr, ptr %4, align 8
  %6 = getelementptr inbounds %class.PointsToIterator, ptr %3, i32 0, i32 2
  %7 = load i32, ptr %6, align 4
  %8 = call noundef ptr @_ZNK12PointsToNode4edgeEi(ptr noundef nonnull align 8 dereferenceable(72) %5, i32 noundef %7)
  ret ptr %8
}

; Function Attrs: mustprogress nounwind uwtable
define linkonce_odr hidden noundef zeroext i1 @_ZNK16PointsToIterator8has_nextEv(ptr noundef nonnull align 8 dereferenceable(16) %0) #1 comdat align 2 {
  %2 = alloca ptr, align 8
  store ptr %0, ptr %2, align 8
  %3 = load ptr, ptr %2, align 8
  %4 = getelementptr inbounds %class.PointsToIterator, ptr %3, i32 0, i32 2
  %5 = load i32, ptr %4, align 4
  %6 = getelementptr inbounds %class.PointsToIterator, ptr %3, i32 0, i32 1
  %7 = load i32, ptr %6, align 8
  %8 = icmp slt i32 %5, %7
  ret i1 %8
}

; Function Attrs: mustprogress nounwind uwtable
define linkonce_odr hidden void @_ZN12EdgeIteratorC2EPK12PointsToNode(ptr noundef nonnull align 8 dereferenceable(16) %0, ptr noundef %1) unnamed_addr #1 comdat align 2 {
  %3 = alloca ptr, align 8
  %4 = alloca ptr, align 8
  store ptr %0, ptr %3, align 8
  store ptr %1, ptr %4, align 8
  %5 = load ptr, ptr %3, align 8
  %6 = load ptr, ptr %4, align 8
  %7 = load ptr, ptr %4, align 8
  %8 = call noundef i32 @_ZNK12PointsToNode10edge_countEv(ptr noundef nonnull align 8 dereferenceable(72) %7)
  call void @_ZN16PointsToIteratorC2EPK12PointsToNodei(ptr noundef nonnull align 8 dereferenceable(16) %5, ptr noundef %6, i32 noundef %8)
  ret void
}

; Function Attrs: mustprogress nounwind uwtable
define linkonce_odr hidden noundef ptr @_ZN12PointsToNode13as_JavaObjectEv(ptr noundef nonnull align 8 dereferenceable(72) %0) #1 comdat align 2 {
  %2 = alloca ptr, align 8
  store ptr %0, ptr %2, align 8
  %3 = load ptr, ptr %2, align 8
  ret ptr %3
}

; Function Attrs: mustprogress nounwind uwtable
define linkonce_odr hidden noundef zeroext i1 @_ZNK12PointsToNode13is_JavaObjectEv(ptr noundef nonnull align 8 dereferenceable(72) %0) #1 comdat align 2 {
  %2 = alloca ptr, align 8
  store ptr %0, ptr %2, align 8
  %3 = load ptr, ptr %2, align 8
  %4 = getelementptr inbounds %class.PointsToNode, ptr %3, i32 0, i32 2
  %5 = load i8, ptr %4, align 8
  %6 = zext i8 %5 to i32
  %7 = icmp eq i32 %6, 1
  ret i1 %7
}

; Function Attrs: mustprogress nounwind uwtable
define linkonce_odr hidden noundef ptr @_ZNK15ConnectionGraph10ptnode_adrEi(ptr noundef nonnull align 8 dereferenceable(232) %0, i32 noundef %1) #1 comdat align 2 {
  %3 = alloca ptr, align 8
  %4 = alloca i32, align 4
  store ptr %0, ptr %3, align 8
  store i32 %1, ptr %4, align 4
  %5 = load ptr, ptr %3, align 8
  %6 = getelementptr inbounds %class.ConnectionGraph, ptr %5, i32 0, i32 0
  %7 = load i32, ptr %4, align 4
  %8 = call noundef nonnull align 8 dereferenceable(8) ptr @_ZNK17GrowableArrayViewIP12PointsToNodeE2atEi(ptr noundef nonnull align 8 dereferenceable(16) %6, i32 noundef %7)
  %9 = load ptr, ptr %8, align 8
  ret ptr %9
}

; Function Attrs: mustprogress nounwind uwtable
define linkonce_odr hidden noundef i32 @_ZNK15ConnectionGraph10nodes_sizeEv(ptr noundef nonnull align 8 dereferenceable(232) %0) #1 comdat align 2 {
  %2 = alloca ptr, align 8
  store ptr %0, ptr %2, align 8
  %3 = load ptr, ptr %2, align 8
  %4 = getelementptr inbounds %class.ConnectionGraph, ptr %3, i32 0, i32 0
  %5 = call noundef i32 @_ZNK17GrowableArrayBase6lengthEv(ptr noundef nonnull align 4 dereferenceable(8) %4)
  ret i32 %5
}

; Function Attrs: mustprogress nounwind uwtable
define linkonce_odr hidden void @_ZN12PointsToNode22set_scalar_replaceableEb(ptr noundef nonnull align 8 dereferenceable(72) %0, i1 noundef zeroext %1) #1 comdat align 2 {
  %3 = alloca ptr, align 8
  %4 = alloca i8, align 1
  store ptr %0, ptr %3, align 8
  %5 = zext i1 %1 to i8
  store i8 %5, ptr %4, align 1
  %6 = load ptr, ptr %3, align 8
  %7 = load i8, ptr %4, align 1
  %8 = trunc i8 %7 to i1
  br i1 %8, label %9, label %15

9:                                                ; preds = %2
  %10 = getelementptr inbounds %class.PointsToNode, ptr %6, i32 0, i32 3
  %11 = load i8, ptr %10, align 1
  %12 = zext i8 %11 to i32
  %13 = or i32 %12, 1
  %14 = trunc i32 %13 to i8
  store i8 %14, ptr %10, align 1
  br label %21

15:                                               ; preds = %2
  %16 = getelementptr inbounds %class.PointsToNode, ptr %6, i32 0, i32 3
  %17 = load i8, ptr %16, align 1
  %18 = zext i8 %17 to i32
  %19 = and i32 %18, -2
  %20 = trunc i32 %19 to i8
  store i8 %20, ptr %16, align 1
  br label %21

21:                                               ; preds = %15, %9
  ret void
}

; Function Attrs: mustprogress nounwind uwtable
define linkonce_odr hidden noundef ptr @_ZNK4Node11as_AllocateEv(ptr noundef nonnull align 8 dereferenceable(52) %0) #1 comdat align 2 {
  %2 = alloca ptr, align 8
  store ptr %0, ptr %2, align 8
  %3 = load ptr, ptr %2, align 8
  ret ptr %3
}

; Function Attrs: mustprogress nounwind uwtable
define linkonce_odr hidden noundef ptr @_ZNK12PointsToNode10ideal_nodeEv(ptr noundef nonnull align 8 dereferenceable(72) %0) #1 comdat align 2 {
  %2 = alloca ptr, align 8
  store ptr %0, ptr %2, align 8
  %3 = load ptr, ptr %2, align 8
  %4 = getelementptr inbounds %class.PointsToNode, ptr %3, i32 0, i32 6
  %5 = load ptr, ptr %4, align 8
  ret ptr %5
}

; Function Attrs: mustprogress nounwind uwtable
define linkonce_odr hidden noundef zeroext i1 @_ZNK12PointsToNode18scalar_replaceableEv(ptr noundef nonnull align 8 dereferenceable(72) %0) #1 comdat align 2 {
  %2 = alloca ptr, align 8
  store ptr %0, ptr %2, align 8
  %3 = load ptr, ptr %2, align 8
  %4 = getelementptr inbounds %class.PointsToNode, ptr %3, i32 0, i32 3
  %5 = load i8, ptr %4, align 1
  %6 = zext i8 %5 to i32
  %7 = and i32 %6, 1
  %8 = icmp ne i32 %7, 0
  ret i1 %8
}

; Function Attrs: mustprogress nounwind uwtable
define hidden noundef ptr @_ZNK15ConnectionGraph18unique_java_objectEP4Node(ptr noundef nonnull align 8 dereferenceable(232) %0, ptr noundef %1) #1 align 2 {
  %3 = alloca ptr, align 8
  %4 = alloca ptr, align 8
  %5 = alloca ptr, align 8
  %6 = alloca i32, align 4
  %7 = alloca ptr, align 8
  %8 = alloca ptr, align 8
  %9 = alloca %class.EdgeIterator, align 8
  %10 = alloca ptr, align 8
  store ptr %0, ptr %4, align 8
  store ptr %1, ptr %5, align 8
  %11 = load ptr, ptr %4, align 8
  %12 = load ptr, ptr %5, align 8
  %13 = getelementptr inbounds %class.Node, ptr %12, i32 0, i32 7
  %14 = load i32, ptr %13, align 8
  store i32 %14, ptr %6, align 4
  %15 = load i32, ptr %6, align 4
  %16 = call noundef i32 @_ZNK15ConnectionGraph10nodes_sizeEv(ptr noundef nonnull align 8 dereferenceable(232) %11)
  %17 = icmp uge i32 %15, %16
  br i1 %17, label %18, label %19

18:                                               ; preds = %2
  store ptr null, ptr %3, align 8
  br label %56

19:                                               ; preds = %2
  %20 = load i32, ptr %6, align 4
  %21 = call noundef ptr @_ZNK15ConnectionGraph10ptnode_adrEi(ptr noundef nonnull align 8 dereferenceable(232) %11, i32 noundef %20)
  store ptr %21, ptr %7, align 8
  %22 = load ptr, ptr %7, align 8
  %23 = icmp eq ptr %22, null
  br i1 %23, label %24, label %25

24:                                               ; preds = %19
  store ptr null, ptr %3, align 8
  br label %56

25:                                               ; preds = %19
  %26 = load ptr, ptr %7, align 8
  %27 = call noundef zeroext i1 @_ZNK12PointsToNode13is_JavaObjectEv(ptr noundef nonnull align 8 dereferenceable(72) %26)
  br i1 %27, label %28, label %31

28:                                               ; preds = %25
  %29 = load ptr, ptr %7, align 8
  %30 = call noundef ptr @_ZN12PointsToNode13as_JavaObjectEv(ptr noundef nonnull align 8 dereferenceable(72) %29)
  store ptr %30, ptr %3, align 8
  br label %56

31:                                               ; preds = %25
  store ptr null, ptr %8, align 8
  %32 = load ptr, ptr %7, align 8
  call void @_ZN12EdgeIteratorC2EPK12PointsToNode(ptr noundef nonnull align 8 dereferenceable(16) %9, ptr noundef %32)
  br label %33

33:                                               ; preds = %53, %31
  %34 = call noundef zeroext i1 @_ZNK16PointsToIterator8has_nextEv(ptr noundef nonnull align 8 dereferenceable(16) %9)
  br i1 %34, label %35, label %54

35:                                               ; preds = %33
  %36 = call noundef ptr @_ZNK12EdgeIterator3getEv(ptr noundef nonnull align 8 dereferenceable(16) %9)
  store ptr %36, ptr %10, align 8
  %37 = load ptr, ptr %10, align 8
  %38 = call noundef zeroext i1 @_ZNK12PointsToNode13is_JavaObjectEv(ptr noundef nonnull align 8 dereferenceable(72) %37)
  br i1 %38, label %39, label %52

39:                                               ; preds = %35
  %40 = load ptr, ptr %8, align 8
  %41 = icmp eq ptr %40, null
  br i1 %41, label %42, label %45

42:                                               ; preds = %39
  %43 = load ptr, ptr %10, align 8
  %44 = call noundef ptr @_ZN12PointsToNode13as_JavaObjectEv(ptr noundef nonnull align 8 dereferenceable(72) %43)
  store ptr %44, ptr %8, align 8
  br label %51

45:                                               ; preds = %39
  %46 = load ptr, ptr %8, align 8
  %47 = load ptr, ptr %10, align 8
  %48 = icmp ne ptr %46, %47
  br i1 %48, label %49, label %50

49:                                               ; preds = %45
  store ptr null, ptr %3, align 8
  br label %56

50:                                               ; preds = %45
  br label %51

51:                                               ; preds = %50, %42
  br label %52

52:                                               ; preds = %51, %35
  br label %53

53:                                               ; preds = %52
  call void @_ZN16PointsToIterator4nextEv(ptr noundef nonnull align 8 dereferenceable(16) %9)
  br label %33, !llvm.loop !68

54:                                               ; preds = %33
  %55 = load ptr, ptr %8, align 8
  store ptr %55, ptr %3, align 8
  br label %56

56:                                               ; preds = %54, %49, %28, %24, %18
  %57 = load ptr, ptr %3, align 8
  ret ptr %57
}

; Function Attrs: mustprogress nounwind uwtable
define linkonce_odr hidden noundef ptr @_ZNK4Node2inEj(ptr noundef nonnull align 8 dereferenceable(52) %0, i32 noundef %1) #1 comdat align 2 {
  %3 = alloca ptr, align 8
  %4 = alloca i32, align 4
  store ptr %0, ptr %3, align 8
  store i32 %1, ptr %4, align 4
  %5 = load ptr, ptr %3, align 8
  %6 = getelementptr inbounds %class.Node, ptr %5, i32 0, i32 1
  %7 = load ptr, ptr %6, align 8
  %8 = load i32, ptr %4, align 4
  %9 = zext i32 %8 to i64
  %10 = getelementptr inbounds ptr, ptr %7, i64 %9
  %11 = load ptr, ptr %10, align 8
  ret ptr %11
}

; Function Attrs: mustprogress nounwind uwtable
define linkonce_odr hidden noundef i32 @_ZNK4Node3reqEv(ptr noundef nonnull align 8 dereferenceable(52) %0) #1 comdat align 2 {
  %2 = alloca ptr, align 8
  store ptr %0, ptr %2, align 8
  %3 = load ptr, ptr %2, align 8
  %4 = getelementptr inbounds %class.Node, ptr %3, i32 0, i32 3
  %5 = load i32, ptr %4, align 8
  ret i32 %5
}

; Function Attrs: mustprogress nounwind uwtable
define hidden noundef zeroext i1 @_ZNK15ConnectionGraph27can_reduce_phi_check_inputsEP7PhiNode(ptr noundef nonnull align 8 dereferenceable(232) %0, ptr noundef %1) #1 align 2 {
  %3 = alloca ptr, align 8
  %4 = alloca ptr, align 8
  %5 = alloca i8, align 1
  %6 = alloca i32, align 4
  %7 = alloca ptr, align 8
  %8 = alloca ptr, align 8
  store ptr %0, ptr %3, align 8
  store ptr %1, ptr %4, align 8
  %9 = load ptr, ptr %3, align 8
  store i8 0, ptr %5, align 1
  store i32 1, ptr %6, align 4
  br label %10

10:                                               ; preds = %46, %2
  %11 = load i32, ptr %6, align 4
  %12 = load ptr, ptr %4, align 8
  %13 = call noundef i32 @_ZNK4Node3reqEv(ptr noundef nonnull align 8 dereferenceable(52) %12)
  %14 = icmp ult i32 %11, %13
  br i1 %14, label %15, label %49

15:                                               ; preds = %10
  %16 = load ptr, ptr %4, align 8
  %17 = load i32, ptr %6, align 4
  %18 = call noundef ptr @_ZNK4Node2inEj(ptr noundef nonnull align 8 dereferenceable(52) %16, i32 noundef %17)
  %19 = call noundef ptr @_ZNK15ConnectionGraph18unique_java_objectEP4Node(ptr noundef nonnull align 8 dereferenceable(232) %9, ptr noundef %18)
  store ptr %19, ptr %7, align 8
  %20 = load ptr, ptr %7, align 8
  %21 = icmp ne ptr %20, null
  br i1 %21, label %22, label %45

22:                                               ; preds = %15
  %23 = load ptr, ptr %7, align 8
  %24 = call noundef zeroext i1 @_ZNK12PointsToNode18scalar_replaceableEv(ptr noundef nonnull align 8 dereferenceable(72) %23)
  br i1 %24, label %25, label %45

25:                                               ; preds = %22
  %26 = load ptr, ptr %7, align 8
  %27 = call noundef ptr @_ZNK12PointsToNode10ideal_nodeEv(ptr noundef nonnull align 8 dereferenceable(72) %26)
  %28 = call noundef ptr @_ZNK4Node11as_AllocateEv(ptr noundef nonnull align 8 dereferenceable(52) %27)
  store ptr %28, ptr %8, align 8
  %29 = load ptr, ptr %8, align 8
  %30 = load ptr, ptr %29, align 8
  %31 = getelementptr inbounds ptr, ptr %30, i64 0
  %32 = load ptr, ptr %31, align 8
  %33 = call noundef i32 %32(ptr noundef nonnull align 8 dereferenceable(131) %29)
  %34 = icmp ne i32 %33, 26
  br i1 %34, label %35, label %36

35:                                               ; preds = %25
  br label %46

36:                                               ; preds = %25
  %37 = getelementptr inbounds %class.ConnectionGraph, ptr %9, i32 0, i32 8
  %38 = load ptr, ptr %37, align 8
  %39 = load ptr, ptr %8, align 8
  %40 = call noundef zeroext i1 @_ZN16PhaseMacroExpand24can_eliminate_allocationEP12PhaseIterGVNP12AllocateNodeP13GrowableArrayIP13SafePointNodeE(ptr noundef %38, ptr noundef %39, ptr noundef null)
  br i1 %40, label %41, label %42

41:                                               ; preds = %36
  store i8 1, ptr %5, align 1
  br label %44

42:                                               ; preds = %36
  %43 = load ptr, ptr %7, align 8
  call void @_ZN12PointsToNode22set_scalar_replaceableEb(ptr noundef nonnull align 8 dereferenceable(72) %43, i1 noundef zeroext false)
  br label %44

44:                                               ; preds = %42, %41
  br label %45

45:                                               ; preds = %44, %22, %15
  br label %46

46:                                               ; preds = %45, %35
  %47 = load i32, ptr %6, align 4
  %48 = add i32 %47, 1
  store i32 %48, ptr %6, align 4
  br label %10, !llvm.loop !67

49:                                               ; preds = %10
  %50 = load i8, ptr %5, align 1
  %51 = trunc i8 %50 to i1
  ret i1 %51
}