; Function Attrs: mustprogress nounwind uwtable
define hidden noundef zeroext i1 @_ZNK15ConnectionGraph27can_reduce_phi_check_inputsEP7PhiNode(ptr nocapture noundef nonnull readonly align 8 dereferenceable(232) %0, ptr nocapture noundef readonly %1) local_unnamed_addr #0 align 2 {
  %3 = getelementptr inbounds i8, ptr %1, i64 24
  %4 = load i32, ptr %3, align 8
  %5 = icmp ugt i32 %4, 1
  br i1 %5, label %.lr.ph, label %._crit_edge

.lr.ph:                                           ; preds = %2
  %6 = getelementptr inbounds i8, ptr %1, i64 8
  %7 = getelementptr inbounds i8, ptr %0, i64 8
  %8 = getelementptr inbounds i8, ptr %0, i64 104
  br label %9

9:                                                ; preds = %.lr.ph, %_ZNK15ConnectionGraph18unique_java_objectEP4Node.exit.thread
  %indvars.iv = phi i64 [ 1, %.lr.ph ], [ %indvars.iv.next, %_ZNK15ConnectionGraph18unique_java_objectEP4Node.exit.thread ]
  %.023 = phi i1 [ false, %.lr.ph ], [ %.1, %_ZNK15ConnectionGraph18unique_java_objectEP4Node.exit.thread ]
  %10 = load ptr, ptr %6, align 8
  %11 = getelementptr inbounds ptr, ptr %10, i64 %indvars.iv
  %12 = load ptr, ptr %11, align 8
  %13 = getelementptr inbounds i8, ptr %12, i64 40
  %14 = load i32, ptr %13, align 8
  %15 = load i32, ptr %0, align 8
  %.not.i = icmp ult i32 %14, %15
  br i1 %.not.i, label %16, label %_ZNK15ConnectionGraph18unique_java_objectEP4Node.exit.thread

16:                                               ; preds = %9
  %17 = load ptr, ptr %7, align 8
  %18 = sext i32 %14 to i64
  %19 = getelementptr inbounds ptr, ptr %17, i64 %18
  %20 = load ptr, ptr %19, align 8
  %21 = icmp eq ptr %20, null
  br i1 %21, label %_ZNK15ConnectionGraph18unique_java_objectEP4Node.exit.thread, label %22

22:                                               ; preds = %16
  %23 = getelementptr inbounds i8, ptr %20, i64 48
  %24 = load i8, ptr %23, align 8
  %25 = icmp eq i8 %24, 1
  br i1 %25, label %_ZNK15ConnectionGraph18unique_java_objectEP4Node.exit.thread17, label %26

26:                                               ; preds = %22
  %27 = load i32, ptr %20, align 4
  %28 = icmp sgt i32 %27, 0
  br i1 %28, label %.lr.ph.i, label %_ZNK15ConnectionGraph18unique_java_objectEP4Node.exit.thread

.lr.ph.i:                                         ; preds = %26
  %29 = getelementptr inbounds i8, ptr %20, i64 8
  %30 = load ptr, ptr %29, align 8
  %wide.trip.count.i = zext nneg i32 %27 to i64
  br label %31

31:                                               ; preds = %40, %.lr.ph.i
  %indvars.iv.i = phi i64 [ 0, %.lr.ph.i ], [ %indvars.iv.next.i, %40 ]
  %.01421.i = phi ptr [ null, %.lr.ph.i ], [ %.1.i, %40 ]
  %32 = getelementptr inbounds ptr, ptr %30, i64 %indvars.iv.i
  %33 = load ptr, ptr %32, align 8
  %34 = getelementptr inbounds i8, ptr %33, i64 48
  %35 = load i8, ptr %34, align 8
  %36 = icmp eq i8 %35, 1
  br i1 %36, label %37, label %40

37:                                               ; preds = %31
  %38 = icmp eq ptr %.01421.i, null
  br i1 %38, label %40, label %39

39:                                               ; preds = %37
  %.not17.i = icmp eq ptr %.01421.i, %33
  br i1 %.not17.i, label %40, label %_ZNK15ConnectionGraph18unique_java_objectEP4Node.exit.thread

40:                                               ; preds = %39, %37, %31
  %.1.i = phi ptr [ %.01421.i, %39 ], [ %.01421.i, %31 ], [ %33, %37 ]
  %indvars.iv.next.i = add nuw nsw i64 %indvars.iv.i, 1
  %exitcond.not.i = icmp eq i64 %indvars.iv.next.i, %wide.trip.count.i
  br i1 %exitcond.not.i, label %_ZNK15ConnectionGraph18unique_java_objectEP4Node.exit, label %31, !llvm.loop !57

_ZNK15ConnectionGraph18unique_java_objectEP4Node.exit: ; preds = %40
  %.not = icmp eq ptr %.1.i, null
  br i1 %.not, label %_ZNK15ConnectionGraph18unique_java_objectEP4Node.exit.thread, label %_ZNK15ConnectionGraph18unique_java_objectEP4Node.exit.thread17

_ZNK15ConnectionGraph18unique_java_objectEP4Node.exit.thread17: ; preds = %22, %_ZNK15ConnectionGraph18unique_java_objectEP4Node.exit
  %.0.i20 = phi ptr [ %.1.i, %_ZNK15ConnectionGraph18unique_java_objectEP4Node.exit ], [ %20, %22 ]
  %41 = getelementptr inbounds i8, ptr %.0.i20, i64 49
  %42 = load i8, ptr %41, align 1
  %43 = and i8 %42, 1
  %.not21 = icmp eq i8 %43, 0
  br i1 %.not21, label %_ZNK15ConnectionGraph18unique_java_objectEP4Node.exit.thread, label %44

44:                                               ; preds = %_ZNK15ConnectionGraph18unique_java_objectEP4Node.exit.thread17
  %45 = getelementptr inbounds i8, ptr %.0.i20, i64 56
  %46 = load ptr, ptr %45, align 8
  %47 = load ptr, ptr %46, align 8
  %48 = load ptr, ptr %47, align 8
  %49 = tail call noundef i32 %48(ptr noundef nonnull align 8 dereferenceable(131) %46) #12
  %.not14 = icmp eq i32 %49, 26
  br i1 %.not14, label %50, label %_ZNK15ConnectionGraph18unique_java_objectEP4Node.exit.thread

50:                                               ; preds = %44
  %51 = load ptr, ptr %8, align 8
  %52 = tail call noundef zeroext i1 @_ZN16PhaseMacroExpand24can_eliminate_allocationEP12PhaseIterGVNP12AllocateNodeP13GrowableArrayIP13SafePointNodeE(ptr noundef %51, ptr noundef nonnull %46, ptr noundef null) #12
  br i1 %52, label %_ZNK15ConnectionGraph18unique_java_objectEP4Node.exit.thread, label %53

53:                                               ; preds = %50
  %54 = load i8, ptr %41, align 1
  %55 = and i8 %54, -2
  store i8 %55, ptr %41, align 1
  br label %_ZNK15ConnectionGraph18unique_java_objectEP4Node.exit.thread

_ZNK15ConnectionGraph18unique_java_objectEP4Node.exit.thread: ; preds = %39, %26, %16, %9, %50, %_ZNK15ConnectionGraph18unique_java_objectEP4Node.exit, %_ZNK15ConnectionGraph18unique_java_objectEP4Node.exit.thread17, %53, %44
  %.1 = phi i1 [ %.023, %44 ], [ %.023, %53 ], [ %.023, %_ZNK15ConnectionGraph18unique_java_objectEP4Node.exit.thread17 ], [ %.023, %_ZNK15ConnectionGraph18unique_java_objectEP4Node.exit ], [ true, %50 ], [ %.023, %9 ], [ %.023, %16 ], [ %.023, %26 ], [ %.023, %39 ]
  %indvars.iv.next = add nuw nsw i64 %indvars.iv, 1
  %56 = load i32, ptr %3, align 8
  %57 = zext i32 %56 to i64
  %58 = icmp ult i64 %indvars.iv.next, %57
  br i1 %58, label %9, label %._crit_edge, !llvm.loop !82

._crit_edge:                                      ; preds = %_ZNK15ConnectionGraph18unique_java_objectEP4Node.exit.thread, %2
  %.0.lcssa = phi i1 [ false, %2 ], [ %.1, %_ZNK15ConnectionGraph18unique_java_objectEP4Node.exit.thread ]
  ret i1 %.0.lcssa
}